target datalayout = "e-m:e-p270:32:32-p271:32:32-p272:64:64-i64:64-i128:128-f80:128-n8:16:32:64-S128"
target triple = "x86_64-pc-linux-gnu"

%struct.lua_TValue = type { %union.Value, [1 x i32], i32 }
%union.Value = type { ptr }

; Function Attrs: mustprogress nounwind uwtable
define internal noundef i32 @_ZL10luauF_lerpP9lua_StateP10lua_TValueS2_iS2_i(ptr noundef %0, ptr noundef %1, ptr noundef %2, i32 noundef %3, ptr noundef %4, i32 noundef %5) #0 {
  %7 = alloca i32, align 4
  %8 = alloca ptr, align 8
  %9 = alloca ptr, align 8
  %10 = alloca ptr, align 8
  %11 = alloca i32, align 4
  %12 = alloca ptr, align 8
  %13 = alloca i32, align 4
  %14 = alloca double, align 8
  %15 = alloca double, align 8
  %16 = alloca double, align 8
  %17 = alloca double, align 8
  %18 = alloca ptr, align 8
  store ptr %0, ptr %8, align 8, !tbaa !4
  store ptr %1, ptr %9, align 8, !tbaa !9
  store ptr %2, ptr %10, align 8, !tbaa !9
  store i32 %3, ptr %11, align 4, !tbaa !11
  store ptr %4, ptr %12, align 8, !tbaa !9
  store i32 %5, ptr %13, align 4, !tbaa !11
  %19 = load i32, ptr %13, align 4, !tbaa !11
  %20 = icmp sge i32 %19, 3
  br i1 %20, label %21, label %70

21:                                               ; preds = %6
  %22 = load i32, ptr %11, align 4, !tbaa !11
  %23 = icmp sle i32 %22, 1
  br i1 %23, label %24, label %70

24:                                               ; preds = %21
  %25 = load ptr, ptr %10, align 8, !tbaa !9
  %26 = getelementptr inbounds nuw %struct.lua_TValue, ptr %25, i32 0, i32 2
  %27 = load i32, ptr %26, align 4, !tbaa !13
  %28 = icmp eq i32 %27, 3
  br i1 %28, label %29, label %70

29:                                               ; preds = %24
  %30 = load ptr, ptr %12, align 8, !tbaa !9
  %31 = getelementptr inbounds nuw %struct.lua_TValue, ptr %30, i32 0, i32 2
  %32 = load i32, ptr %31, align 4, !tbaa !13
  %33 = icmp eq i32 %32, 3
  br i1 %33, label %34, label %70

34:                                               ; preds = %29
  %35 = load ptr, ptr %12, align 8, !tbaa !9
  %36 = getelementptr inbounds %struct.lua_TValue, ptr %35, i64 1
  %37 = getelementptr inbounds nuw %struct.lua_TValue, ptr %36, i32 0, i32 2
  %38 = load i32, ptr %37, align 4, !tbaa !13
  %39 = icmp eq i32 %38, 3
  br i1 %39, label %40, label %70

40:                                               ; preds = %34
  call void @llvm.lifetime.start.p0(i64 8, ptr %14) #17
  %41 = load ptr, ptr %10, align 8, !tbaa !9
  %42 = getelementptr inbounds nuw %struct.lua_TValue, ptr %41, i32 0, i32 0
  %43 = load double, ptr %42, align 8, !tbaa !15
  store double %43, ptr %14, align 8, !tbaa !16
  call void @llvm.lifetime.start.p0(i64 8, ptr %15) #17
  %44 = load ptr, ptr %12, align 8, !tbaa !9
  %45 = getelementptr inbounds nuw %struct.lua_TValue, ptr %44, i32 0, i32 0
  %46 = load double, ptr %45, align 8, !tbaa !15
  store double %46, ptr %15, align 8, !tbaa !16
  call void @llvm.lifetime.start.p0(i64 8, ptr %16) #17
  %47 = load ptr, ptr %12, align 8, !tbaa !9
  %48 = getelementptr inbounds %struct.lua_TValue, ptr %47, i64 1
  %49 = getelementptr inbounds nuw %struct.lua_TValue, ptr %48, i32 0, i32 0
  %50 = load double, ptr %49, align 8, !tbaa !15
  store double %50, ptr %16, align 8, !tbaa !16
  call void @llvm.lifetime.start.p0(i64 8, ptr %17) #17
  %51 = load double, ptr %16, align 8, !tbaa !16
  %52 = fcmp oeq double %51, 1.000000e+00
  br i1 %52, label %53, label %55

53:                                               ; preds = %40
  %54 = load double, ptr %15, align 8, !tbaa !16
  br label %62

55:                                               ; preds = %40
  %56 = load double, ptr %14, align 8, !tbaa !16
  %57 = load double, ptr %15, align 8, !tbaa !16
  %58 = load double, ptr %14, align 8, !tbaa !16
  %59 = fsub double %57, %58
  %60 = load double, ptr %16, align 8, !tbaa !16
  %61 = call double @llvm.fmuladd.f64(double %59, double %60, double %56)
  br label %62

62:                                               ; preds = %55, %53
  %63 = phi double [ %54, %53 ], [ %61, %55 ]
  store double %63, ptr %17, align 8, !tbaa !16
  call void @llvm.lifetime.start.p0(i64 8, ptr %18) #17
  %64 = load ptr, ptr %9, align 8, !tbaa !9
  store ptr %64, ptr %18, align 8, !tbaa !9
  %65 = load double, ptr %17, align 8, !tbaa !16
  %66 = load ptr, ptr %18, align 8, !tbaa !9
  %67 = getelementptr inbounds nuw %struct.lua_TValue, ptr %66, i32 0, i32 0
  store double %65, ptr %67, align 8, !tbaa !15
  %68 = load ptr, ptr %18, align 8, !tbaa !9
  %69 = getelementptr inbounds nuw %struct.lua_TValue, ptr %68, i32 0, i32 2
  store i32 3, ptr %69, align 4, !tbaa !13
  call void @llvm.lifetime.end.p0(i64 8, ptr %18) #17
  store i32 1, ptr %7, align 4
  call void @llvm.lifetime.end.p0(i64 8, ptr %17) #17
  call void @llvm.lifetime.end.p0(i64 8, ptr %16) #17
  call void @llvm.lifetime.end.p0(i64 8, ptr %15) #17
  call void @llvm.lifetime.end.p0(i64 8, ptr %14) #17
  br label %71

70:                                               ; preds = %34, %29, %24, %21, %6
  store i32 -1, ptr %7, align 4
  br label %71

71:                                               ; preds = %70, %62
  %72 = load i32, ptr %7, align 4
  ret i32 %72
}