; Function Attrs: mustprogress nofree norecurse nosync nounwind willreturn memory(argmem: readwrite) uwtable
define internal noundef range(i32 -1, 2) i32 @_ZL10luauF_lerpP9lua_StateP10lua_TValueS2_iS2_i(ptr readnone captures(none) %0, ptr noundef writeonly captures(none) %1, ptr noundef readonly captures(none) %2, i32 noundef %3, ptr noundef readonly captures(none) %4, i32 noundef %5) #1 {
  %7 = icmp sgt i32 %5, 2
  %8 = icmp slt i32 %3, 2
  %or.cond = and i1 %8, %7
  br i1 %or.cond, label %9, label %33

9:                                                ; preds = %6
  %10 = getelementptr inbounds nuw i8, ptr %2, i64 12
  %11 = load i32, ptr %10, align 4, !tbaa !4
  %12 = icmp eq i32 %11, 3
  br i1 %12, label %13, label %33

13:                                               ; preds = %9
  %14 = getelementptr inbounds nuw i8, ptr %4, i64 12
  %15 = load i32, ptr %14, align 4, !tbaa !4
  %16 = icmp eq i32 %15, 3
  br i1 %16, label %17, label %33

17:                                               ; preds = %13
  %18 = getelementptr inbounds nuw i8, ptr %4, i64 28
  %19 = load i32, ptr %18, align 4, !tbaa !4
  %20 = icmp eq i32 %19, 3
  br i1 %20, label %21, label %33

21:                                               ; preds = %17
  %22 = getelementptr inbounds nuw i8, ptr %4, i64 16
  %23 = load double, ptr %4, align 8, !tbaa !9
  %24 = load double, ptr %22, align 8, !tbaa !9
  %25 = fcmp oeq double %24, 1.000000e+00
  br i1 %25, label %30, label %26

26:                                               ; preds = %21
  %27 = load double, ptr %2, align 8, !tbaa !9
  %28 = fsub double %23, %27
  %29 = tail call double @llvm.fmuladd.f64(double %28, double %24, double %27)
  br label %30

30:                                               ; preds = %21, %26
  %31 = phi double [ %29, %26 ], [ %23, %21 ]
  store double %31, ptr %1, align 8, !tbaa !9
  %32 = getelementptr inbounds nuw i8, ptr %1, i64 12
  store i32 3, ptr %32, align 4, !tbaa !4
  br label %33

33:                                               ; preds = %6, %9, %13, %17, %30
  %.0 = phi i32 [ 1, %30 ], [ -1, %17 ], [ -1, %13 ], [ -1, %9 ], [ -1, %6 ]
  ret i32 %.0
}